target datalayout = "e-m:e-p270:32:32-p271:32:32-p272:64:64-i64:64-i128:128-f80:128-n8:16:32:64-S128"
target triple = "x86_64-pc-linux-gnu"

%struct.lxb_html_tokenizer = type { ptr, ptr, ptr, ptr, ptr, ptr, ptr, ptr, ptr, ptr, ptr, ptr, ptr, ptr, ptr, i64, ptr, ptr, ptr, ptr, ptr, i64, i64, ptr, ptr, i64, i64, i32, i32, i8, i32, i32, i8, ptr, i64 }
%struct.lxb_html_token_t = type { ptr, ptr, i64, i64, ptr, ptr, ptr, ptr, ptr, i64, i64, i32 }

; Function Attrs: nounwind uwtable
define internal void @lxb_html_token_clean(ptr noundef %0) #0 {
  %2 = alloca ptr, align 8
  store ptr %0, ptr %2, align 8
  %3 = load ptr, ptr %2, align 8
  call void @llvm.memset.p0.i64(ptr align 8 %3, i8 0, i64 96, i1 false)
  ret void
}

; Function Attrs: nounwind uwtable
define internal ptr @lxb_html_tokenizer_state_doctype_before_system_identifier(ptr noundef %0, ptr noundef %1, ptr noundef %2) #0 {
  %4 = alloca ptr, align 8
  %5 = alloca ptr, align 8
  %6 = alloca ptr, align 8
  %7 = alloca ptr, align 8
  store ptr %0, ptr %5, align 8
  store ptr %1, ptr %6, align 8
  store ptr %2, ptr %7, align 8
  %8 = load ptr, ptr %6, align 8
  %9 = load i8, ptr %8, align 1
  %10 = zext i8 %9 to i32
  switch i32 %10, label %163 [
    i32 9, label %11
    i32 10, label %11
    i32 12, label %11
    i32 13, label %11
    i32 32, label %11
    i32 34, label %14
    i32 39, label %19
    i32 62, label %24
    i32 0, label %91
  ]

11:                                               ; preds = %3, %3, %3, %3, %3
  %12 = load ptr, ptr %6, align 8
  %13 = getelementptr inbounds i8, ptr %12, i64 1
  store ptr %13, ptr %4, align 8
  br label %178

14:                                               ; preds = %3
  %15 = load ptr, ptr %5, align 8
  %16 = getelementptr inbounds %struct.lxb_html_tokenizer, ptr %15, i32 0, i32 0
  store ptr @lxb_html_tokenizer_state_doctype_system_identifier_double_quoted, ptr %16, align 8
  %17 = load ptr, ptr %6, align 8
  %18 = getelementptr inbounds i8, ptr %17, i64 1
  store ptr %18, ptr %4, align 8
  br label %178

19:                                               ; preds = %3
  %20 = load ptr, ptr %5, align 8
  %21 = getelementptr inbounds %struct.lxb_html_tokenizer, ptr %20, i32 0, i32 0
  store ptr @lxb_html_tokenizer_state_doctype_system_identifier_single_quoted, ptr %21, align 8
  %22 = load ptr, ptr %6, align 8
  %23 = getelementptr inbounds i8, ptr %22, i64 1
  store ptr %23, ptr %4, align 8
  br label %178

24:                                               ; preds = %3
  %25 = load ptr, ptr %5, align 8
  %26 = getelementptr inbounds %struct.lxb_html_tokenizer, ptr %25, i32 0, i32 8
  %27 = load ptr, ptr %26, align 8
  %28 = getelementptr inbounds %struct.lxb_html_token_t, ptr %27, i32 0, i32 11
  %29 = load i32, ptr %28, align 8
  %30 = or i32 %29, 4
  store i32 %30, ptr %28, align 8
  %31 = load ptr, ptr %5, align 8
  %32 = getelementptr inbounds %struct.lxb_html_tokenizer, ptr %31, i32 0, i32 0
  store ptr @lxb_html_tokenizer_state_data_before, ptr %32, align 8
  %33 = load ptr, ptr %5, align 8
  %34 = getelementptr inbounds %struct.lxb_html_tokenizer, ptr %33, i32 0, i32 11
  %35 = load ptr, ptr %34, align 8
  %36 = load ptr, ptr %6, align 8
  %37 = call ptr @lxb_html_tokenizer_error_add(ptr noundef %35, ptr noundef %36, i32 noundef 24)
  br label %38

38:                                               ; preds = %24
  %39 = load ptr, ptr %5, align 8
  %40 = getelementptr inbounds %struct.lxb_html_tokenizer, ptr %39, i32 0, i32 8
  %41 = load ptr, ptr %40, align 8
  %42 = getelementptr inbounds %struct.lxb_html_token_t, ptr %41, i32 0, i32 0
  %43 = load ptr, ptr %42, align 8
  %44 = load ptr, ptr %5, align 8
  %45 = getelementptr inbounds %struct.lxb_html_tokenizer, ptr %44, i32 0, i32 8
  %46 = load ptr, ptr %45, align 8
  %47 = getelementptr inbounds %struct.lxb_html_token_t, ptr %46, i32 0, i32 1
  %48 = load ptr, ptr %47, align 8
  %49 = icmp ne ptr %43, %48
  br i1 %49, label %50, label %79

50:                                               ; preds = %38
  %51 = load ptr, ptr %5, align 8
  %52 = getelementptr inbounds %struct.lxb_html_tokenizer, ptr %51, i32 0, i32 2
  %53 = load ptr, ptr %52, align 8
  %54 = load ptr, ptr %5, align 8
  %55 = load ptr, ptr %5, align 8
  %56 = getelementptr inbounds %struct.lxb_html_tokenizer, ptr %55, i32 0, i32 8
  %57 = load ptr, ptr %56, align 8
  %58 = load ptr, ptr %5, align 8
  %59 = getelementptr inbounds %struct.lxb_html_tokenizer, ptr %58, i32 0, i32 3
  %60 = load ptr, ptr %59, align 8
  %61 = call ptr %53(ptr noundef %54, ptr noundef %57, ptr noundef %60)
  %62 = load ptr, ptr %5, align 8
  %63 = getelementptr inbounds %struct.lxb_html_tokenizer, ptr %62, i32 0, i32 8
  store ptr %61, ptr %63, align 8
  %64 = load ptr, ptr %5, align 8
  %65 = getelementptr inbounds %struct.lxb_html_tokenizer, ptr %64, i32 0, i32 8
  %66 = load ptr, ptr %65, align 8
  %67 = icmp eq ptr %66, null
  br i1 %67, label %68, label %78

68:                                               ; preds = %50
  %69 = load ptr, ptr %5, align 8
  %70 = getelementptr inbounds %struct.lxb_html_tokenizer, ptr %69, i32 0, i32 31
  %71 = load i32, ptr %70, align 8
  %72 = icmp eq i32 %71, 0
  br i1 %72, label %73, label %76

73:                                               ; preds = %68
  %74 = load ptr, ptr %5, align 8
  %75 = getelementptr inbounds %struct.lxb_html_tokenizer, ptr %74, i32 0, i32 31
  store i32 1, ptr %75, align 8
  br label %76

76:                                               ; preds = %73, %68
  %77 = load ptr, ptr %7, align 8
  store ptr %77, ptr %4, align 8
  br label %178

78:                                               ; preds = %50
  br label %79

79:                                               ; preds = %78, %38
  %80 = load ptr, ptr %5, align 8
  %81 = getelementptr inbounds %struct.lxb_html_tokenizer, ptr %80, i32 0, i32 8
  %82 = load ptr, ptr %81, align 8
  call void @lxb_html_token_clean(ptr noundef %82)
  %83 = load ptr, ptr %5, align 8
  %84 = getelementptr inbounds %struct.lxb_html_tokenizer, ptr %83, i32 0, i32 16
  %85 = load ptr, ptr %84, align 8
  %86 = load ptr, ptr %5, align 8
  %87 = getelementptr inbounds %struct.lxb_html_tokenizer, ptr %86, i32 0, i32 17
  store ptr %85, ptr %87, align 8
  br label %88

88:                                               ; preds = %79
  %89 = load ptr, ptr %6, align 8
  %90 = getelementptr inbounds i8, ptr %89, i64 1
  store ptr %90, ptr %4, align 8
  br label %178

91:                                               ; preds = %3
  %92 = load ptr, ptr %5, align 8
  %93 = getelementptr inbounds %struct.lxb_html_tokenizer, ptr %92, i32 0, i32 32
  %94 = load i8, ptr %93, align 4
  %95 = trunc i8 %94 to i1
  br i1 %95, label %96, label %162

96:                                               ; preds = %91
  %97 = load ptr, ptr %5, align 8
  %98 = getelementptr inbounds %struct.lxb_html_tokenizer, ptr %97, i32 0, i32 11
  %99 = load ptr, ptr %98, align 8
  %100 = load ptr, ptr %5, align 8
  %101 = getelementptr inbounds %struct.lxb_html_tokenizer, ptr %100, i32 0, i32 20
  %102 = load ptr, ptr %101, align 8
  %103 = call ptr @lxb_html_tokenizer_error_add(ptr noundef %99, ptr noundef %102, i32 noundef 14)
  %104 = load ptr, ptr %5, align 8
  %105 = getelementptr inbounds %struct.lxb_html_tokenizer, ptr %104, i32 0, i32 8
  %106 = load ptr, ptr %105, align 8
  %107 = getelementptr inbounds %struct.lxb_html_token_t, ptr %106, i32 0, i32 11
  %108 = load i32, ptr %107, align 8
  %109 = or i32 %108, 4
  store i32 %109, ptr %107, align 8
  br label %110

110:                                              ; preds = %96
  %111 = load ptr, ptr %5, align 8
  %112 = getelementptr inbounds %struct.lxb_html_tokenizer, ptr %111, i32 0, i32 8
  %113 = load ptr, ptr %112, align 8
  %114 = getelementptr inbounds %struct.lxb_html_token_t, ptr %113, i32 0, i32 0
  %115 = load ptr, ptr %114, align 8
  %116 = load ptr, ptr %5, align 8
  %117 = getelementptr inbounds %struct.lxb_html_tokenizer, ptr %116, i32 0, i32 8
  %118 = load ptr, ptr %117, align 8
  %119 = getelementptr inbounds %struct.lxb_html_token_t, ptr %118, i32 0, i32 1
  %120 = load ptr, ptr %119, align 8
  %121 = icmp ne ptr %115, %120
  br i1 %121, label %122, label %151

122:                                              ; preds = %110
  %123 = load ptr, ptr %5, align 8
  %124 = getelementptr inbounds %struct.lxb_html_tokenizer, ptr %123, i32 0, i32 2
  %125 = load ptr, ptr %124, align 8
  %126 = load ptr, ptr %5, align 8
  %127 = load ptr, ptr %5, align 8
  %128 = getelementptr inbounds %struct.lxb_html_tokenizer, ptr %127, i32 0, i32 8
  %129 = load ptr, ptr %128, align 8
  %130 = load ptr, ptr %5, align 8
  %131 = getelementptr inbounds %struct.lxb_html_tokenizer, ptr %130, i32 0, i32 3
  %132 = load ptr, ptr %131, align 8
  %133 = call ptr %125(ptr noundef %126, ptr noundef %129, ptr noundef %132)
  %134 = load ptr, ptr %5, align 8
  %135 = getelementptr inbounds %struct.lxb_html_tokenizer, ptr %134, i32 0, i32 8
  store ptr %133, ptr %135, align 8
  %136 = load ptr, ptr %5, align 8
  %137 = getelementptr inbounds %struct.lxb_html_tokenizer, ptr %136, i32 0, i32 8
  %138 = load ptr, ptr %137, align 8
  %139 = icmp eq ptr %138, null
  br i1 %139, label %140, label %150

140:                                              ; preds = %122
  %141 = load ptr, ptr %5, align 8
  %142 = getelementptr inbounds %struct.lxb_html_tokenizer, ptr %141, i32 0, i32 31
  %143 = load i32, ptr %142, align 8
  %144 = icmp eq i32 %143, 0
  br i1 %144, label %145, label %148

145:                                              ; preds = %140
  %146 = load ptr, ptr %5, align 8
  %147 = getelementptr inbounds %struct.lxb_html_tokenizer, ptr %146, i32 0, i32 31
  store i32 1, ptr %147, align 8
  br label %148

148:                                              ; preds = %145, %140
  %149 = load ptr, ptr %7, align 8
  store ptr %149, ptr %4, align 8
  br label %178

150:                                              ; preds = %122
  br label %151

151:                                              ; preds = %150, %110
  %152 = load ptr, ptr %5, align 8
  %153 = getelementptr inbounds %struct.lxb_html_tokenizer, ptr %152, i32 0, i32 8
  %154 = load ptr, ptr %153, align 8
  call void @lxb_html_token_clean(ptr noundef %154)
  %155 = load ptr, ptr %5, align 8
  %156 = getelementptr inbounds %struct.lxb_html_tokenizer, ptr %155, i32 0, i32 16
  %157 = load ptr, ptr %156, align 8
  %158 = load ptr, ptr %5, align 8
  %159 = getelementptr inbounds %struct.lxb_html_tokenizer, ptr %158, i32 0, i32 17
  store ptr %157, ptr %159, align 8
  br label %160

160:                                              ; preds = %151
  %161 = load ptr, ptr %7, align 8
  store ptr %161, ptr %4, align 8
  br label %178

162:                                              ; preds = %91
  br label %163

163:                                              ; preds = %162, %3
  %164 = load ptr, ptr %5, align 8
  %165 = getelementptr inbounds %struct.lxb_html_tokenizer, ptr %164, i32 0, i32 8
  %166 = load ptr, ptr %165, align 8
  %167 = getelementptr inbounds %struct.lxb_html_token_t, ptr %166, i32 0, i32 11
  %168 = load i32, ptr %167, align 8
  %169 = or i32 %168, 4
  store i32 %169, ptr %167, align 8
  %170 = load ptr, ptr %5, align 8
  %171 = getelementptr inbounds %struct.lxb_html_tokenizer, ptr %170, i32 0, i32 0
  store ptr @lxb_html_tokenizer_state_doctype_bogus, ptr %171, align 8
  %172 = load ptr, ptr %5, align 8
  %173 = getelementptr inbounds %struct.lxb_html_tokenizer, ptr %172, i32 0, i32 11
  %174 = load ptr, ptr %173, align 8
  %175 = load ptr, ptr %6, align 8
  %176 = call ptr @lxb_html_tokenizer_error_add(ptr noundef %174, ptr noundef %175, i32 noundef 27)
  %177 = load ptr, ptr %6, align 8
  store ptr %177, ptr %4, align 8
  br label %178

178:                                              ; preds = %163, %160, %148, %88, %76, %19, %14, %11
  %179 = load ptr, ptr %4, align 8
  ret ptr %179
}