; Function Attrs: nounwind uwtable
define internal ptr @lxb_html_tokenizer_state_doctype_before_system_identifier(ptr noundef %0, ptr noundef %1, ptr noundef readnone %2) #0 {
  %4 = load i8, ptr %1, align 1
  switch i8 %4, label %78 [
    i8 9, label %5
    i8 10, label %5
    i8 12, label %5
    i8 13, label %5
    i8 32, label %5
    i8 34, label %7
    i8 39, label %9
    i8 62, label %11
    i8 0, label %42
  ]

5:                                                ; preds = %3, %3, %3, %3, %3
  %6 = getelementptr inbounds i8, ptr %1, i64 1
  br label %87

7:                                                ; preds = %3
  store ptr @lxb_html_tokenizer_state_doctype_system_identifier_double_quoted, ptr %0, align 8
  %8 = getelementptr inbounds i8, ptr %1, i64 1
  br label %87

9:                                                ; preds = %3
  store ptr @lxb_html_tokenizer_state_doctype_system_identifier_single_quoted, ptr %0, align 8
  %10 = getelementptr inbounds i8, ptr %1, i64 1
  br label %87

11:                                               ; preds = %3
  %12 = getelementptr inbounds i8, ptr %0, i64 64
  %13 = load ptr, ptr %12, align 8
  %14 = getelementptr inbounds i8, ptr %13, i64 88
  %15 = load i32, ptr %14, align 8
  %16 = or i32 %15, 4
  store i32 %16, ptr %14, align 8
  store ptr @lxb_html_tokenizer_state_data_before, ptr %0, align 8
  %17 = getelementptr inbounds i8, ptr %0, i64 88
  %18 = load ptr, ptr %17, align 8
  %19 = tail call ptr @lxb_html_tokenizer_error_add(ptr noundef %18, ptr noundef nonnull %1, i32 noundef 24) #4
  %20 = load ptr, ptr %12, align 8
  %21 = load ptr, ptr %20, align 8
  %22 = getelementptr inbounds i8, ptr %20, i64 8
  %23 = load ptr, ptr %22, align 8
  %.not51 = icmp eq ptr %21, %23
  br i1 %.not51, label %36, label %24

24:                                               ; preds = %11
  %25 = getelementptr inbounds i8, ptr %0, i64 16
  %26 = load ptr, ptr %25, align 8
  %27 = getelementptr inbounds i8, ptr %0, i64 24
  %28 = load ptr, ptr %27, align 8
  %29 = tail call ptr %26(ptr noundef nonnull %0, ptr noundef nonnull %20, ptr noundef %28) #4
  store ptr %29, ptr %12, align 8
  %30 = icmp eq ptr %29, null
  br i1 %30, label %31, label %36

31:                                               ; preds = %24
  %32 = getelementptr inbounds i8, ptr %0, i64 232
  %33 = load i32, ptr %32, align 8
  %34 = icmp eq i32 %33, 0
  br i1 %34, label %35, label %87

35:                                               ; preds = %31
  store i32 1, ptr %32, align 8
  br label %87

36:                                               ; preds = %24, %11
  %37 = phi ptr [ %29, %24 ], [ %20, %11 ]
  tail call void @llvm.memset.p0.i64(ptr noundef nonnull align 8 dereferenceable(96) %37, i8 0, i64 96, i1 false)
  %38 = getelementptr inbounds i8, ptr %0, i64 128
  %39 = load ptr, ptr %38, align 8
  %40 = getelementptr inbounds i8, ptr %0, i64 136
  store ptr %39, ptr %40, align 8
  %41 = getelementptr inbounds i8, ptr %1, i64 1
  br label %87

42:                                               ; preds = %3
  %43 = getelementptr inbounds i8, ptr %0, i64 236
  %44 = load i8, ptr %43, align 4
  %45 = and i8 %44, 1
  %.not = icmp eq i8 %45, 0
  br i1 %.not, label %78, label %46

46:                                               ; preds = %42
  %47 = getelementptr inbounds i8, ptr %0, i64 88
  %48 = load ptr, ptr %47, align 8
  %49 = getelementptr inbounds i8, ptr %0, i64 160
  %50 = load ptr, ptr %49, align 8
  %51 = tail call ptr @lxb_html_tokenizer_error_add(ptr noundef %48, ptr noundef %50, i32 noundef 14) #4
  %52 = getelementptr inbounds i8, ptr %0, i64 64
  %53 = load ptr, ptr %52, align 8
  %54 = getelementptr inbounds i8, ptr %53, i64 88
  %55 = load i32, ptr %54, align 8
  %56 = or i32 %55, 4
  store i32 %56, ptr %54, align 8
  %57 = load ptr, ptr %52, align 8
  %58 = load ptr, ptr %57, align 8
  %59 = getelementptr inbounds i8, ptr %57, i64 8
  %60 = load ptr, ptr %59, align 8
  %.not50 = icmp eq ptr %58, %60
  br i1 %.not50, label %73, label %61

61:                                               ; preds = %46
  %62 = getelementptr inbounds i8, ptr %0, i64 16
  %63 = load ptr, ptr %62, align 8
  %64 = getelementptr inbounds i8, ptr %0, i64 24
  %65 = load ptr, ptr %64, align 8
  %66 = tail call ptr %63(ptr noundef nonnull %0, ptr noundef nonnull %57, ptr noundef %65) #4
  store ptr %66, ptr %52, align 8
  %67 = icmp eq ptr %66, null
  br i1 %67, label %68, label %73

68:                                               ; preds = %61
  %69 = getelementptr inbounds i8, ptr %0, i64 232
  %70 = load i32, ptr %69, align 8
  %71 = icmp eq i32 %70, 0
  br i1 %71, label %72, label %87

72:                                               ; preds = %68
  store i32 1, ptr %69, align 8
  br label %87

73:                                               ; preds = %61, %46
  %74 = phi ptr [ %66, %61 ], [ %57, %46 ]
  tail call void @llvm.memset.p0.i64(ptr noundef nonnull align 8 dereferenceable(96) %74, i8 0, i64 96, i1 false)
  %75 = getelementptr inbounds i8, ptr %0, i64 128
  %76 = load ptr, ptr %75, align 8
  %77 = getelementptr inbounds i8, ptr %0, i64 136
  store ptr %76, ptr %77, align 8
  br label %87

78:                                               ; preds = %42, %3
  %79 = getelementptr inbounds i8, ptr %0, i64 64
  %80 = load ptr, ptr %79, align 8
  %81 = getelementptr inbounds i8, ptr %80, i64 88
  %82 = load i32, ptr %81, align 8
  %83 = or i32 %82, 4
  store i32 %83, ptr %81, align 8
  store ptr @lxb_html_tokenizer_state_doctype_bogus, ptr %0, align 8
  %84 = getelementptr inbounds i8, ptr %0, i64 88
  %85 = load ptr, ptr %84, align 8
  %86 = tail call ptr @lxb_html_tokenizer_error_add(ptr noundef %85, ptr noundef nonnull %1, i32 noundef 27) #4
  br label %87

87:                                               ; preds = %68, %72, %31, %35, %78, %73, %36, %9, %7, %5
  %.0 = phi ptr [ %1, %78 ], [ %2, %73 ], [ %41, %36 ], [ %10, %9 ], [ %8, %7 ], [ %6, %5 ], [ %2, %35 ], [ %2, %31 ], [ %2, %72 ], [ %2, %68 ]
  ret ptr %.0
}